target datalayout = "e-m:e-p270:32:32-p271:32:32-p272:64:64-i64:64-i128:128-f80:128-n8:16:32:64-S128"
target triple = "x86_64-pc-linux-gnu"

%struct._YR_ARENA_PAGE = type { ptr, ptr, i64, i64, ptr, ptr, ptr, ptr }
%struct._YR_ARENA = type { i32, ptr, ptr }

@.str = private unnamed_addr constant [13 x i8] c"page != NULL\00", align 1
@.str.1 = private unnamed_addr constant [114 x i8] c"generated/home/dtcxzyw/WorkSpace/Projects/compilers/llvm-opt-benchmark/bench/clamav/clamav/libclamav/yara_arena.c\00", align 1
@__PRETTY_FUNCTION__.yr_arena_next_address = private unnamed_addr constant [56 x i8] c"void *yr_arena_next_address(YR_ARENA *, void *, size_t)\00", align 1

; Function Attrs: nounwind uwtable
define ptr @_yr_arena_page_for_address(ptr noundef %0, ptr noundef %1) #0 {
  %3 = alloca ptr, align 8
  %4 = alloca ptr, align 8
  %5 = alloca ptr, align 8
  %6 = alloca ptr, align 8
  store ptr %0, ptr %4, align 8
  store ptr %1, ptr %5, align 8
  %7 = load ptr, ptr %4, align 8
  %8 = getelementptr inbounds %struct._YR_ARENA, ptr %7, i32 0, i32 2
  %9 = load ptr, ptr %8, align 8
  store ptr %9, ptr %6, align 8
  %10 = load ptr, ptr %6, align 8
  %11 = icmp ne ptr %10, null
  br i1 %11, label %12, label %30

12:                                               ; preds = %2
  %13 = load ptr, ptr %5, align 8
  %14 = load ptr, ptr %6, align 8
  %15 = getelementptr inbounds %struct._YR_ARENA_PAGE, ptr %14, i32 0, i32 1
  %16 = load ptr, ptr %15, align 8
  %17 = icmp uge ptr %13, %16
  br i1 %17, label %18, label %30

18:                                               ; preds = %12
  %19 = load ptr, ptr %5, align 8
  %20 = load ptr, ptr %6, align 8
  %21 = getelementptr inbounds %struct._YR_ARENA_PAGE, ptr %20, i32 0, i32 1
  %22 = load ptr, ptr %21, align 8
  %23 = load ptr, ptr %6, align 8
  %24 = getelementptr inbounds %struct._YR_ARENA_PAGE, ptr %23, i32 0, i32 3
  %25 = load i64, ptr %24, align 8
  %26 = getelementptr inbounds i8, ptr %22, i64 %25
  %27 = icmp ult ptr %19, %26
  br i1 %27, label %28, label %30

28:                                               ; preds = %18
  %29 = load ptr, ptr %6, align 8
  store ptr %29, ptr %3, align 8
  br label %60

30:                                               ; preds = %18, %12, %2
  %31 = load ptr, ptr %4, align 8
  %32 = getelementptr inbounds %struct._YR_ARENA, ptr %31, i32 0, i32 1
  %33 = load ptr, ptr %32, align 8
  store ptr %33, ptr %6, align 8
  br label %34

34:                                               ; preds = %55, %30
  %35 = load ptr, ptr %6, align 8
  %36 = icmp ne ptr %35, null
  br i1 %36, label %37, label %59

37:                                               ; preds = %34
  %38 = load ptr, ptr %5, align 8
  %39 = load ptr, ptr %6, align 8
  %40 = getelementptr inbounds %struct._YR_ARENA_PAGE, ptr %39, i32 0, i32 1
  %41 = load ptr, ptr %40, align 8
  %42 = icmp uge ptr %38, %41
  br i1 %42, label %43, label %55

43:                                               ; preds = %37
  %44 = load ptr, ptr %5, align 8
  %45 = load ptr, ptr %6, align 8
  %46 = getelementptr inbounds %struct._YR_ARENA_PAGE, ptr %45, i32 0, i32 1
  %47 = load ptr, ptr %46, align 8
  %48 = load ptr, ptr %6, align 8
  %49 = getelementptr inbounds %struct._YR_ARENA_PAGE, ptr %48, i32 0, i32 3
  %50 = load i64, ptr %49, align 8
  %51 = getelementptr inbounds i8, ptr %47, i64 %50
  %52 = icmp ult ptr %44, %51
  br i1 %52, label %53, label %55

53:                                               ; preds = %43
  %54 = load ptr, ptr %6, align 8
  store ptr %54, ptr %3, align 8
  br label %60

55:                                               ; preds = %43, %37
  %56 = load ptr, ptr %6, align 8
  %57 = getelementptr inbounds %struct._YR_ARENA_PAGE, ptr %56, i32 0, i32 6
  %58 = load ptr, ptr %57, align 8
  store ptr %58, ptr %6, align 8
  br label %34

59:                                               ; preds = %34
  store ptr null, ptr %3, align 8
  br label %60

60:                                               ; preds = %59, %53, %28
  %61 = load ptr, ptr %3, align 8
  ret ptr %61
}

; Function Attrs: nounwind uwtable
define ptr @yr_arena_next_address(ptr noundef %0, ptr noundef %1, i64 noundef %2) #0 {
  %4 = alloca ptr, align 8
  %5 = alloca ptr, align 8
  %6 = alloca ptr, align 8
  %7 = alloca i64, align 8
  %8 = alloca ptr, align 8
  store ptr %0, ptr %5, align 8
  store ptr %1, ptr %6, align 8
  store i64 %2, ptr %7, align 8
  %9 = load ptr, ptr %5, align 8
  %10 = load ptr, ptr %6, align 8
  %11 = call ptr @_yr_arena_page_for_address(ptr noundef %9, ptr noundef %10)
  store ptr %11, ptr %8, align 8
  %12 = load ptr, ptr %8, align 8
  %13 = icmp ne ptr %12, null
  br i1 %13, label %14, label %15

14:                                               ; preds = %3
  br label %16

15:                                               ; preds = %3
  call void @__assert_fail(ptr noundef @.str, ptr noundef @.str.1, i32 noundef 346, ptr noundef @__PRETTY_FUNCTION__.yr_arena_next_address) #9
  unreachable

16:                                               ; preds = %14
  %17 = load ptr, ptr %6, align 8
  %18 = load i64, ptr %7, align 8
  %19 = getelementptr inbounds i8, ptr %17, i64 %18
  %20 = load ptr, ptr %8, align 8
  %21 = getelementptr inbounds %struct._YR_ARENA_PAGE, ptr %20, i32 0, i32 1
  %22 = load ptr, ptr %21, align 8
  %23 = icmp uge ptr %19, %22
  br i1 %23, label %24, label %40

24:                                               ; preds = %16
  %25 = load ptr, ptr %6, align 8
  %26 = load i64, ptr %7, align 8
  %27 = getelementptr inbounds i8, ptr %25, i64 %26
  %28 = load ptr, ptr %8, align 8
  %29 = getelementptr inbounds %struct._YR_ARENA_PAGE, ptr %28, i32 0, i32 1
  %30 = load ptr, ptr %29, align 8
  %31 = load ptr, ptr %8, align 8
  %32 = getelementptr inbounds %struct._YR_ARENA_PAGE, ptr %31, i32 0, i32 3
  %33 = load i64, ptr %32, align 8
  %34 = getelementptr inbounds i8, ptr %30, i64 %33
  %35 = icmp ult ptr %27, %34
  br i1 %35, label %36, label %40

36:                                               ; preds = %24
  %37 = load ptr, ptr %6, align 8
  %38 = load i64, ptr %7, align 8
  %39 = getelementptr inbounds i8, ptr %37, i64 %38
  store ptr %39, ptr %4, align 8
  br label %124

40:                                               ; preds = %24, %16
  %41 = load i64, ptr %7, align 8
  %42 = icmp ugt i64 %41, 0
  br i1 %42, label %43, label %85

43:                                               ; preds = %40
  %44 = load ptr, ptr %8, align 8
  %45 = getelementptr inbounds %struct._YR_ARENA_PAGE, ptr %44, i32 0, i32 1
  %46 = load ptr, ptr %45, align 8
  %47 = load ptr, ptr %8, align 8
  %48 = getelementptr inbounds %struct._YR_ARENA_PAGE, ptr %47, i32 0, i32 3
  %49 = load i64, ptr %48, align 8
  %50 = getelementptr inbounds i8, ptr %46, i64 %49
  %51 = load ptr, ptr %6, align 8
  %52 = ptrtoint ptr %50 to i64
  %53 = ptrtoint ptr %51 to i64
  %54 = sub i64 %52, %53
  %55 = load i64, ptr %7, align 8
  %56 = sub i64 %55, %54
  store i64 %56, ptr %7, align 8
  %57 = load ptr, ptr %8, align 8
  %58 = getelementptr inbounds %struct._YR_ARENA_PAGE, ptr %57, i32 0, i32 6
  %59 = load ptr, ptr %58, align 8
  store ptr %59, ptr %8, align 8
  br label %60

60:                                               ; preds = %75, %43
  %61 = load ptr, ptr %8, align 8
  %62 = icmp ne ptr %61, null
  br i1 %62, label %63, label %84

63:                                               ; preds = %60
  %64 = load i64, ptr %7, align 8
  %65 = load ptr, ptr %8, align 8
  %66 = getelementptr inbounds %struct._YR_ARENA_PAGE, ptr %65, i32 0, i32 3
  %67 = load i64, ptr %66, align 8
  %68 = icmp ult i64 %64, %67
  br i1 %68, label %69, label %75

69:                                               ; preds = %63
  %70 = load ptr, ptr %8, align 8
  %71 = getelementptr inbounds %struct._YR_ARENA_PAGE, ptr %70, i32 0, i32 1
  %72 = load ptr, ptr %71, align 8
  %73 = load i64, ptr %7, align 8
  %74 = getelementptr inbounds i8, ptr %72, i64 %73
  store ptr %74, ptr %4, align 8
  br label %124

75:                                               ; preds = %63
  %76 = load ptr, ptr %8, align 8
  %77 = getelementptr inbounds %struct._YR_ARENA_PAGE, ptr %76, i32 0, i32 3
  %78 = load i64, ptr %77, align 8
  %79 = load i64, ptr %7, align 8
  %80 = sub i64 %79, %78
  store i64 %80, ptr %7, align 8
  %81 = load ptr, ptr %8, align 8
  %82 = getelementptr inbounds %struct._YR_ARENA_PAGE, ptr %81, i32 0, i32 6
  %83 = load ptr, ptr %82, align 8
  store ptr %83, ptr %8, align 8
  br label %60

84:                                               ; preds = %60
  br label %123

85:                                               ; preds = %40
  %86 = load ptr, ptr %8, align 8
  %87 = getelementptr inbounds %struct._YR_ARENA_PAGE, ptr %86, i32 0, i32 3
  %88 = load i64, ptr %87, align 8
  %89 = load i64, ptr %7, align 8
  %90 = add i64 %89, %88
  store i64 %90, ptr %7, align 8
  %91 = load ptr, ptr %8, align 8
  %92 = getelementptr inbounds %struct._YR_ARENA_PAGE, ptr %91, i32 0, i32 7
  %93 = load ptr, ptr %92, align 8
  store ptr %93, ptr %8, align 8
  br label %94

94:                                               ; preds = %113, %85
  %95 = load ptr, ptr %8, align 8
  %96 = icmp ne ptr %95, null
  br i1 %96, label %97, label %122

97:                                               ; preds = %94
  %98 = load i64, ptr %7, align 8
  %99 = load ptr, ptr %8, align 8
  %100 = getelementptr inbounds %struct._YR_ARENA_PAGE, ptr %99, i32 0, i32 3
  %101 = load i64, ptr %100, align 8
  %102 = icmp ult i64 %98, %101
  br i1 %102, label %103, label %113

103:                                              ; preds = %97
  %104 = load ptr, ptr %8, align 8
  %105 = getelementptr inbounds %struct._YR_ARENA_PAGE, ptr %104, i32 0, i32 1
  %106 = load ptr, ptr %105, align 8
  %107 = load ptr, ptr %8, align 8
  %108 = getelementptr inbounds %struct._YR_ARENA_PAGE, ptr %107, i32 0, i32 3
  %109 = load i64, ptr %108, align 8
  %110 = getelementptr inbounds i8, ptr %106, i64 %109
  %111 = load i64, ptr %7, align 8
  %112 = getelementptr inbounds i8, ptr %110, i64 %111
  store ptr %112, ptr %4, align 8
  br label %124

113:                                              ; preds = %97
  %114 = load ptr, ptr %8, align 8
  %115 = getelementptr inbounds %struct._YR_ARENA_PAGE, ptr %114, i32 0, i32 3
  %116 = load i64, ptr %115, align 8
  %117 = load i64, ptr %7, align 8
  %118 = add i64 %117, %116
  store i64 %118, ptr %7, align 8
  %119 = load ptr, ptr %8, align 8
  %120 = getelementptr inbounds %struct._YR_ARENA_PAGE, ptr %119, i32 0, i32 7
  %121 = load ptr, ptr %120, align 8
  store ptr %121, ptr %8, align 8
  br label %94

122:                                              ; preds = %94
  br label %123

123:                                              ; preds = %122, %84
  store ptr null, ptr %4, align 8
  br label %124

124:                                              ; preds = %123, %103, %69, %36
  %125 = load ptr, ptr %4, align 8
  ret ptr %125
}