; Function Attrs: nounwind uwtable
define ptr @yr_arena_next_address(ptr nocapture noundef readonly %0, ptr noundef %1, i64 noundef %2) local_unnamed_addr #0 {
  %4 = getelementptr inbounds i8, ptr %0, i64 16
  %5 = load ptr, ptr %4, align 8
  %.not.i = icmp eq ptr %5, null
  br i1 %.not.i, label %14, label %6

6:                                                ; preds = %3
  %7 = getelementptr inbounds i8, ptr %5, i64 8
  %8 = load ptr, ptr %7, align 8
  %.not23.i = icmp ugt ptr %8, %1
  br i1 %.not23.i, label %14, label %9

9:                                                ; preds = %6
  %10 = getelementptr inbounds i8, ptr %5, i64 24
  %11 = load i64, ptr %10, align 8
  %12 = getelementptr inbounds i8, ptr %8, i64 %11
  %13 = icmp ugt ptr %12, %1
  br i1 %13, label %_yr_arena_page_for_address.exit, label %14

14:                                               ; preds = %9, %6, %3
  %15 = getelementptr inbounds i8, ptr %0, i64 8
  %.026.i = load ptr, ptr %15, align 8
  %.not2427.i = icmp eq ptr %.026.i, null
  br i1 %.not2427.i, label %.loopexit58, label %.lr.ph.i

.lr.ph.i:                                         ; preds = %14, %23
  %.028.i = phi ptr [ %.0.i, %23 ], [ %.026.i, %14 ]
  %16 = getelementptr inbounds i8, ptr %.028.i, i64 8
  %17 = load ptr, ptr %16, align 8
  %.not25.i = icmp ugt ptr %17, %1
  br i1 %.not25.i, label %23, label %18

18:                                               ; preds = %.lr.ph.i
  %19 = getelementptr inbounds i8, ptr %.028.i, i64 24
  %20 = load i64, ptr %19, align 8
  %21 = getelementptr inbounds i8, ptr %17, i64 %20
  %22 = icmp ugt ptr %21, %1
  br i1 %22, label %_yr_arena_page_for_address.exit, label %23

23:                                               ; preds = %18, %.lr.ph.i
  %24 = getelementptr inbounds i8, ptr %.028.i, i64 48
  %.0.i = load ptr, ptr %24, align 8
  %.not24.i = icmp eq ptr %.0.i, null
  br i1 %.not24.i, label %.loopexit58, label %.lr.ph.i

.loopexit58:                                      ; preds = %23, %14
  tail call void @__assert_fail(ptr noundef nonnull @.str, ptr noundef nonnull @.str.1, i32 noundef 346, ptr noundef nonnull @__PRETTY_FUNCTION__.yr_arena_next_address) #12
  unreachable

_yr_arena_page_for_address.exit:                  ; preds = %18, %9
  %25 = phi i64 [ %11, %9 ], [ %20, %18 ]
  %26 = phi ptr [ %8, %9 ], [ %17, %18 ]
  %.018.i = phi ptr [ %5, %9 ], [ %.028.i, %18 ]
  %27 = getelementptr inbounds i8, ptr %1, i64 %2
  %.not49 = icmp uge ptr %27, %26
  %28 = getelementptr inbounds i8, ptr %26, i64 %25
  %29 = icmp ult ptr %27, %28
  %or.cond = select i1 %.not49, i1 %29, i1 false
  br i1 %or.cond, label %.loopexit, label %30

30:                                               ; preds = %_yr_arena_page_for_address.exit
  %.not50 = icmp eq i64 %2, 0
  br i1 %.not50, label %45, label %31

31:                                               ; preds = %30
  %.0.in64 = getelementptr inbounds i8, ptr %.018.i, i64 48
  %.065 = load ptr, ptr %.0.in64, align 8
  %.not5266 = icmp eq ptr %.065, null
  br i1 %.not5266, label %.loopexit, label %.lr.ph.preheader

.lr.ph.preheader:                                 ; preds = %31
  %32 = ptrtoint ptr %1 to i64
  %.neg = add i64 %32, %2
  %33 = getelementptr inbounds i8, ptr %26, i64 %25
  %34 = ptrtoint ptr %33 to i64
  %35 = sub i64 %.neg, %34
  br label %.lr.ph

.lr.ph:                                           ; preds = %.lr.ph.preheader, %43
  %.068 = phi ptr [ %.0, %43 ], [ %.065, %.lr.ph.preheader ]
  %.03867 = phi i64 [ %44, %43 ], [ %35, %.lr.ph.preheader ]
  %36 = getelementptr inbounds i8, ptr %.068, i64 24
  %37 = load i64, ptr %36, align 8
  %38 = icmp ult i64 %.03867, %37
  br i1 %38, label %39, label %43

39:                                               ; preds = %.lr.ph
  %40 = getelementptr inbounds i8, ptr %.068, i64 8
  %41 = load ptr, ptr %40, align 8
  %42 = getelementptr inbounds i8, ptr %41, i64 %.03867
  br label %.loopexit

43:                                               ; preds = %.lr.ph
  %44 = sub i64 %.03867, %37
  %.0.in = getelementptr inbounds i8, ptr %.068, i64 48
  %.0 = load ptr, ptr %.0.in, align 8
  %.not52 = icmp eq ptr %.0, null
  br i1 %.not52, label %.loopexit, label %.lr.ph

45:                                               ; preds = %30
  %.1.in69 = getelementptr inbounds i8, ptr %.018.i, i64 56
  %.170 = load ptr, ptr %.1.in69, align 8
  %.not5171 = icmp eq ptr %.170, null
  br i1 %.not5171, label %.loopexit, label %.lr.ph74

.lr.ph74:                                         ; preds = %45, %54
  %.173 = phi ptr [ %.1, %54 ], [ %.170, %45 ]
  %.13972 = phi i64 [ %55, %54 ], [ %25, %45 ]
  %46 = getelementptr inbounds i8, ptr %.173, i64 24
  %47 = load i64, ptr %46, align 8
  %48 = icmp ult i64 %.13972, %47
  br i1 %48, label %49, label %54

49:                                               ; preds = %.lr.ph74
  %50 = getelementptr inbounds i8, ptr %.173, i64 8
  %51 = load ptr, ptr %50, align 8
  %52 = getelementptr inbounds i8, ptr %51, i64 %47
  %53 = getelementptr inbounds i8, ptr %52, i64 %.13972
  br label %.loopexit

54:                                               ; preds = %.lr.ph74
  %55 = add i64 %47, %.13972
  %.1.in = getelementptr inbounds i8, ptr %.173, i64 56
  %.1 = load ptr, ptr %.1.in, align 8
  %.not51 = icmp eq ptr %.1, null
  br i1 %.not51, label %.loopexit, label %.lr.ph74

.loopexit:                                        ; preds = %43, %54, %_yr_arena_page_for_address.exit, %31, %45, %49, %39
  %.040 = phi ptr [ %42, %39 ], [ %53, %49 ], [ null, %45 ], [ null, %31 ], [ %27, %_yr_arena_page_for_address.exit ], [ null, %54 ], [ null, %43 ]
  ret ptr %.040
}